target datalayout = "e-m:e-p270:32:32-p271:32:32-p272:64:64-i64:64-i128:128-f80:128-n8:16:32:64-S128"
target triple = "x86_64-unknown-linux-gnu"

%"class.sat::literal" = type { i32 }
%class.symbol = type { ptr }
%struct.pair_hash = type { %struct.unsigned_hash }
%struct.unsigned_hash = type { i8 }
%"class.bv::solver" = type { %"class.euf::th_euf_solver.base", %class.svector.3, i32, i32, %class.bv_util, %class.arith_util, %"struct.bv::solver::stats", %"class.bv::ackerman", %class.bit_blaster, %class.union_find, %class.vector.9, %class.svector.1, %class.vector.10, %class.ptr_vector.11, %class.map, %class.vector.15, %class.svector.3, %class.svector.16, %class.svector.1, i32, %"class.sat::literal", %class.ptr_vector, %class.obj_map, %class.obj_map.22, i8, [2 x %class.svector.27] }
%"class.euf::th_euf_solver.base" = type <{ %"class.euf::th_solver", ptr, %class.ptr_vector, %class.svector.1, i32 }>
%"class.euf::th_solver" = type { %"class.sat::extension", %"class.euf::th_model_builder", %"class.euf::th_decompile", %"class.euf::th_internalizer", ptr }
%"class.sat::extension" = type { ptr, i8, i32, %class.symbol, ptr }
%"class.euf::th_model_builder" = type { ptr }
%"class.euf::th_decompile" = type { ptr }
%"class.euf::th_internalizer" = type { ptr, %class.ptr_vector, %class.svector }
%class.svector = type { %class.vector.0 }
%class.vector.0 = type { ptr }
%class.bv_util = type { %class.bv_recognizers, ptr, ptr }
%class.bv_recognizers = type { i32 }
%class.arith_util = type { ptr, ptr }
%"struct.bv::solver::stats" = type { i32, i32, i32, i32, i32, i32, i32, i32 }
%"class.bv::ackerman" = type { ptr, %class.hashtable, ptr, ptr, i32, i32, i32, i32, %class.svector.5 }
%class.hashtable = type { %class.core_hashtable.base, [4 x i8] }
%class.core_hashtable.base = type <{ ptr, i32, i32, i32 }>
%class.svector.5 = type { %class.vector.6 }
%class.vector.6 = type { ptr }
%class.bit_blaster = type { %class.bit_blaster_tpl, %class.bv_util, %class.bool_rewriter }
%class.bit_blaster_tpl = type { %class.bit_blaster_cfg, i64 }
%class.bit_blaster_cfg = type { ptr, ptr, ptr }
%class.bool_rewriter = type { ptr, i8, i8, i8, i8, i8, i8, i32, i8, i32, i32, i8, %class.ptr_vector.7, %class.ptr_vector.7, %class.svector.1, %class.svector.1 }
%class.ptr_vector.7 = type { %class.vector.8 }
%class.vector.8 = type { ptr }
%class.union_find = type { ptr, ptr, %class.svector.1, %class.svector.1, %class.svector.1, %"class.union_find<bv::solver, euf::solver>::mk_var_trail" }
%"class.union_find<bv::solver, euf::solver>::mk_var_trail" = type { %class.trail, ptr }
%class.trail = type { ptr }
%class.vector.9 = type { ptr }
%class.vector.10 = type { ptr }
%class.ptr_vector.11 = type { %class.vector.12 }
%class.vector.12 = type { ptr }
%class.map = type { %class.table2map }
%class.table2map = type { %class.core_hashtable.13 }
%class.core_hashtable.13 = type <{ %"struct.table2map<default_map_entry<std::pair<rational, unsigned int>, int>, pair_hash<obj_hash<rational>, unsigned_hash>, default_eq<std::pair<rational, unsigned int>>>::entry_hash_proc", [7 x i8], ptr, i32, i32, i32, [4 x i8] }>
%"struct.table2map<default_map_entry<std::pair<rational, unsigned int>, int>, pair_hash<obj_hash<rational>, unsigned_hash>, default_eq<std::pair<rational, unsigned int>>>::entry_hash_proc" = type { %struct.pair_hash }
%class.vector.15 = type { ptr }
%class.svector.3 = type { %class.vector.4 }
%class.vector.4 = type { ptr }
%class.svector.16 = type { %class.vector.17 }
%class.vector.17 = type { ptr }
%class.svector.1 = type { %class.vector.2 }
%class.vector.2 = type { ptr }
%class.ptr_vector = type { %class.vector }
%class.vector = type { ptr }
%class.obj_map = type { %class.core_hashtable.18 }
%class.core_hashtable.18 = type <{ ptr, i32, i32, i32, [4 x i8] }>
%class.obj_map.22 = type { %class.core_hashtable.23 }
%class.core_hashtable.23 = type <{ ptr, i32, i32, i32, [4 x i8] }>
%class.svector.27 = type { %class.vector.28 }
%class.vector.28 = type { ptr }

@.str.38 = private unnamed_addr constant [13 x i8] c"bv conflicts\00", align 1
@.str.39 = private unnamed_addr constant [10 x i8] c"bv diseqs\00", align 1
@.str.40 = private unnamed_addr constant [18 x i8] c"bv dynamic diseqs\00", align 1
@.str.41 = private unnamed_addr constant [10 x i8] c"bv eq2bit\00", align 1
@.str.42 = private unnamed_addr constant [10 x i8] c"bv ne2bit\00", align 1
@.str.43 = private unnamed_addr constant [10 x i8] c"bv bit2eq\00", align 1
@.str.44 = private unnamed_addr constant [10 x i8] c"bv bit2ne\00", align 1
@.str.45 = private unnamed_addr constant [12 x i8] c"bv ackerman\00", align 1

; Function Attrs: mustprogress uwtable
define hidden void @_ZNK2bv6solver18collect_statisticsER10statistics(ptr noundef nonnull align 8 dereferenceable(640) %this, ptr noundef nonnull align 8 dereferenceable(16) %st) unnamed_addr #5 align 2 {
entry:
  %this.addr = alloca ptr, align 8
  %st.addr = alloca ptr, align 8
  store ptr %this, ptr %this.addr, align 8
  store ptr %st, ptr %st.addr, align 8
  %this1 = load ptr, ptr %this.addr, align 8
  %0 = load ptr, ptr %st.addr, align 8
  %m_stats = getelementptr inbounds %"class.bv::solver", ptr %this1, i32 0, i32 6
  %m_num_conflicts = getelementptr inbounds %"struct.bv::solver::stats", ptr %m_stats, i32 0, i32 2
  %1 = load i32, ptr %m_num_conflicts, align 8
  call void @_ZN10statistics6updateEPKcj(ptr noundef nonnull align 8 dereferenceable(16) %0, ptr noundef @.str.38, i32 noundef %1)
  %2 = load ptr, ptr %st.addr, align 8
  %m_stats2 = getelementptr inbounds %"class.bv::solver", ptr %this1, i32 0, i32 6
  %m_num_diseq_static = getelementptr inbounds %"struct.bv::solver::stats", ptr %m_stats2, i32 0, i32 0
  %3 = load i32, ptr %m_num_diseq_static, align 8
  call void @_ZN10statistics6updateEPKcj(ptr noundef nonnull align 8 dereferenceable(16) %2, ptr noundef @.str.39, i32 noundef %3)
  %4 = load ptr, ptr %st.addr, align 8
  %m_stats3 = getelementptr inbounds %"class.bv::solver", ptr %this1, i32 0, i32 6
  %m_num_diseq_dynamic = getelementptr inbounds %"struct.bv::solver::stats", ptr %m_stats3, i32 0, i32 1
  %5 = load i32, ptr %m_num_diseq_dynamic, align 4
  call void @_ZN10statistics6updateEPKcj(ptr noundef nonnull align 8 dereferenceable(16) %4, ptr noundef @.str.40, i32 noundef %5)
  %6 = load ptr, ptr %st.addr, align 8
  %m_stats4 = getelementptr inbounds %"class.bv::solver", ptr %this1, i32 0, i32 6
  %m_num_eq2bit = getelementptr inbounds %"struct.bv::solver::stats", ptr %m_stats4, i32 0, i32 5
  %7 = load i32, ptr %m_num_eq2bit, align 4
  call void @_ZN10statistics6updateEPKcj(ptr noundef nonnull align 8 dereferenceable(16) %6, ptr noundef @.str.41, i32 noundef %7)
  %8 = load ptr, ptr %st.addr, align 8
  %m_stats5 = getelementptr inbounds %"class.bv::solver", ptr %this1, i32 0, i32 6
  %m_num_ne2bit = getelementptr inbounds %"struct.bv::solver::stats", ptr %m_stats5, i32 0, i32 6
  %9 = load i32, ptr %m_num_ne2bit, align 8
  call void @_ZN10statistics6updateEPKcj(ptr noundef nonnull align 8 dereferenceable(16) %8, ptr noundef @.str.42, i32 noundef %9)
  %10 = load ptr, ptr %st.addr, align 8
  %m_stats6 = getelementptr inbounds %"class.bv::solver", ptr %this1, i32 0, i32 6
  %m_num_bit2eq = getelementptr inbounds %"struct.bv::solver::stats", ptr %m_stats6, i32 0, i32 3
  %11 = load i32, ptr %m_num_bit2eq, align 4
  call void @_ZN10statistics6updateEPKcj(ptr noundef nonnull align 8 dereferenceable(16) %10, ptr noundef @.str.43, i32 noundef %11)
  %12 = load ptr, ptr %st.addr, align 8
  %m_stats7 = getelementptr inbounds %"class.bv::solver", ptr %this1, i32 0, i32 6
  %m_num_bit2ne = getelementptr inbounds %"struct.bv::solver::stats", ptr %m_stats7, i32 0, i32 4
  %13 = load i32, ptr %m_num_bit2ne, align 8
  call void @_ZN10statistics6updateEPKcj(ptr noundef nonnull align 8 dereferenceable(16) %12, ptr noundef @.str.44, i32 noundef %13)
  %14 = load ptr, ptr %st.addr, align 8
  %m_stats8 = getelementptr inbounds %"class.bv::solver", ptr %this1, i32 0, i32 6
  %m_ackerman = getelementptr inbounds %"struct.bv::solver::stats", ptr %m_stats8, i32 0, i32 7
  %15 = load i32, ptr %m_ackerman, align 4
  call void @_ZN10statistics6updateEPKcj(ptr noundef nonnull align 8 dereferenceable(16) %14, ptr noundef @.str.45, i32 noundef %15)
  ret void
}