; Function Attrs: mustprogress uwtable
define hidden void @_ZNK2bv6solver18collect_statisticsER10statistics(ptr nocapture noundef nonnull readonly align 8 dereferenceable(640) %this, ptr noundef nonnull align 8 dereferenceable(16) %st) unnamed_addr #3 align 2 {
entry:
  %m_stats = getelementptr inbounds i8, ptr %this, i64 168
  %m_num_conflicts = getelementptr inbounds i8, ptr %this, i64 176
  %0 = load i32, ptr %m_num_conflicts, align 8
  tail call void @_ZN10statistics6updateEPKcj(ptr noundef nonnull align 8 dereferenceable(16) %st, ptr noundef nonnull @.str.38, i32 noundef %0)
  %1 = load i32, ptr %m_stats, align 8
  tail call void @_ZN10statistics6updateEPKcj(ptr noundef nonnull align 8 dereferenceable(16) %st, ptr noundef nonnull @.str.39, i32 noundef %1)
  %m_num_diseq_dynamic = getelementptr inbounds i8, ptr %this, i64 172
  %2 = load i32, ptr %m_num_diseq_dynamic, align 4
  tail call void @_ZN10statistics6updateEPKcj(ptr noundef nonnull align 8 dereferenceable(16) %st, ptr noundef nonnull @.str.40, i32 noundef %2)
  %m_num_eq2bit = getelementptr inbounds i8, ptr %this, i64 188
  %3 = load i32, ptr %m_num_eq2bit, align 4
  tail call void @_ZN10statistics6updateEPKcj(ptr noundef nonnull align 8 dereferenceable(16) %st, ptr noundef nonnull @.str.41, i32 noundef %3)
  %m_num_ne2bit = getelementptr inbounds i8, ptr %this, i64 192
  %4 = load i32, ptr %m_num_ne2bit, align 8
  tail call void @_ZN10statistics6updateEPKcj(ptr noundef nonnull align 8 dereferenceable(16) %st, ptr noundef nonnull @.str.42, i32 noundef %4)
  %m_num_bit2eq = getelementptr inbounds i8, ptr %this, i64 180
  %5 = load i32, ptr %m_num_bit2eq, align 4
  tail call void @_ZN10statistics6updateEPKcj(ptr noundef nonnull align 8 dereferenceable(16) %st, ptr noundef nonnull @.str.43, i32 noundef %5)
  %m_num_bit2ne = getelementptr inbounds i8, ptr %this, i64 184
  %6 = load i32, ptr %m_num_bit2ne, align 8
  tail call void @_ZN10statistics6updateEPKcj(ptr noundef nonnull align 8 dereferenceable(16) %st, ptr noundef nonnull @.str.44, i32 noundef %6)
  %m_ackerman = getelementptr inbounds i8, ptr %this, i64 196
  %7 = load i32, ptr %m_ackerman, align 4
  tail call void @_ZN10statistics6updateEPKcj(ptr noundef nonnull align 8 dereferenceable(16) %st, ptr noundef nonnull @.str.45, i32 noundef %7)
  ret void
}